; ModuleID = '5/24.c'
source_filename = "5/24.c"
target datalayout = "e-m:e-p270:32:32-p271:32:32-p272:64:64-i64:64-f80:128-n8:16:32:64-S128"
target triple = "x86_64-pc-linux-gnu"

@.str = private unnamed_addr constant [3 x i8] c"%f\00", align 1
@.str.1 = private unnamed_addr constant [3 x i8] c"%s\00", align 1
@.str.2 = private unnamed_addr constant [6 x i8] c"error\00", align 1
@.str.3 = private unnamed_addr constant [4 x i8] c"yes\00", align 1
@.str.4 = private unnamed_addr constant [3 x i8] c"no\00", align 1

; Function Attrs: noinline nounwind uwtable
define dso_local i32 @main() #0 {
  %1 = alloca i32, align 4
  %2 = alloca float, align 4
  %3 = alloca i32, align 4
  %4 = alloca [2 x [500 x i8]], align 16
  %5 = alloca float, align 4
  %6 = alloca float, align 4
  %7 = alloca i32, align 4
  store i32 0, i32* %1, align 4
  store i32 0, i32* %3, align 4
  %8 = call i32 (i8*, ...) @__isoc99_scanf(i8* getelementptr inbounds ([3 x i8], [3 x i8]* @.str, i64 0, i64 0), float* %2)
  %9 = getelementptr inbounds [2 x [500 x i8]], [2 x [500 x i8]]* %4, i64 0, i64 0
  %10 = getelementptr inbounds [500 x i8], [500 x i8]* %9, i64 0, i64 0
  %11 = call i32 (i8*, ...) @__isoc99_scanf(i8* getelementptr inbounds ([3 x i8], [3 x i8]* @.str.1, i64 0, i64 0), i8* %10)
  %12 = getelementptr inbounds [2 x [500 x i8]], [2 x [500 x i8]]* %4, i64 0, i64 1
  %13 = getelementptr inbounds [500 x i8], [500 x i8]* %12, i64 0, i64 0
  %14 = call i32 (i8*, ...) @__isoc99_scanf(i8* getelementptr inbounds ([3 x i8], [3 x i8]* @.str.1, i64 0, i64 0), i8* %13)
  store float 0.000000e+00, float* %5, align 4
  %15 = getelementptr inbounds [2 x [500 x i8]], [2 x [500 x i8]]* %4, i64 0, i64 0
  %16 = getelementptr inbounds [500 x i8], [500 x i8]* %15, i64 0, i64 0
  %17 = call i64 @strlen(i8* %16) #3
  %18 = getelementptr inbounds [2 x [500 x i8]], [2 x [500 x i8]]* %4, i64 0, i64 1
  %19 = getelementptr inbounds [500 x i8], [500 x i8]* %18, i64 0, i64 0
  %20 = call i64 @strlen(i8* %19) #3
  %21 = icmp ne i64 %17, %20
  br i1 %21, label %22, label %24

22:                                               ; preds = %0
  %23 = call i32 (i8*, ...) @printf(i8* getelementptr inbounds ([6 x i8], [6 x i8]* @.str.2, i64 0, i64 0))
  br label %147

24:                                               ; preds = %0
  %25 = getelementptr inbounds [2 x [500 x i8]], [2 x [500 x i8]]* %4, i64 0, i64 0
  %26 = getelementptr inbounds [500 x i8], [500 x i8]* %25, i64 0, i64 0
  %27 = call i64 @strlen(i8* %26) #3
  %28 = uitofp i64 %27 to float
  store float %28, float* %6, align 4
  store i32 0, i32* %7, align 4
  br label %29

29:                                               ; preds = %121, %24
  %30 = load i32, i32* %7, align 4
  %31 = sitofp i32 %30 to float
  %32 = load float, float* %6, align 4
  %33 = fcmp olt float %31, %32
  br i1 %33, label %34, label %124

34:                                               ; preds = %29
  %35 = getelementptr inbounds [2 x [500 x i8]], [2 x [500 x i8]]* %4, i64 0, i64 0
  %36 = load i32, i32* %7, align 4
  %37 = sext i32 %36 to i64
  %38 = getelementptr inbounds [500 x i8], [500 x i8]* %35, i64 0, i64 %37
  %39 = load i8, i8* %38, align 1
  %40 = sext i8 %39 to i32
  %41 = icmp ne i32 %40, 65
  br i1 %41, label %42, label %66

42:                                               ; preds = %34
  %43 = getelementptr inbounds [2 x [500 x i8]], [2 x [500 x i8]]* %4, i64 0, i64 0
  %44 = load i32, i32* %7, align 4
  %45 = sext i32 %44 to i64
  %46 = getelementptr inbounds [500 x i8], [500 x i8]* %43, i64 0, i64 %45
  %47 = load i8, i8* %46, align 1
  %48 = sext i8 %47 to i32
  %49 = icmp ne i32 %48, 84
  br i1 %49, label %50, label %66

50:                                               ; preds = %42
  %51 = getelementptr inbounds [2 x [500 x i8]], [2 x [500 x i8]]* %4, i64 0, i64 0
  %52 = load i32, i32* %7, align 4
  %53 = sext i32 %52 to i64
  %54 = getelementptr inbounds [500 x i8], [500 x i8]* %51, i64 0, i64 %53
  %55 = load i8, i8* %54, align 1
  %56 = sext i8 %55 to i32
  %57 = icmp ne i32 %56, 67
  br i1 %57, label %58, label %66

58:                                               ; preds = %50
  %59 = getelementptr inbounds [2 x [500 x i8]], [2 x [500 x i8]]* %4, i64 0, i64 0
  %60 = load i32, i32* %7, align 4
  %61 = sext i32 %60 to i64
  %62 = getelementptr inbounds [500 x i8], [500 x i8]* %59, i64 0, i64 %61
  %63 = load i8, i8* %62, align 1
  %64 = sext i8 %63 to i32
  %65 = icmp ne i32 %64, 71
  br i1 %65, label %98, label %66

66:                                               ; preds = %58, %50, %42, %34
  %67 = getelementptr inbounds [2 x [500 x i8]], [2 x [500 x i8]]* %4, i64 0, i64 1
  %68 = load i32, i32* %7, align 4
  %69 = sext i32 %68 to i64
  %70 = getelementptr inbounds [500 x i8], [500 x i8]* %67, i64 0, i64 %69
  %71 = load i8, i8* %70, align 1
  %72 = sext i8 %71 to i32
  %73 = icmp ne i32 %72, 65
  br i1 %73, label %74, label %100

74:                                               ; preds = %66
  %75 = getelementptr inbounds [2 x [500 x i8]], [2 x [500 x i8]]* %4, i64 0, i64 1
  %76 = load i32, i32* %7, align 4
  %77 = sext i32 %76 to i64
  %78 = getelementptr inbounds [500 x i8], [500 x i8]* %75, i64 0, i64 %77
  %79 = load i8, i8* %78, align 1
  %80 = sext i8 %79 to i32
  %81 = icmp ne i32 %80, 84
  br i1 %81, label %82, label %100

82:                                               ; preds = %74
  %83 = getelementptr inbounds [2 x [500 x i8]], [2 x [500 x i8]]* %4, i64 0, i64 1
  %84 = load i32, i32* %7, align 4
  %85 = sext i32 %84 to i64
  %86 = getelementptr inbounds [500 x i8], [500 x i8]* %83, i64 0, i64 %85
  %87 = load i8, i8* %86, align 1
  %88 = sext i8 %87 to i32
  %89 = icmp ne i32 %88, 67
  br i1 %89, label %90, label %100

90:                                               ; preds = %82
  %91 = getelementptr inbounds [2 x [500 x i8]], [2 x [500 x i8]]* %4, i64 0, i64 1
  %92 = load i32, i32* %7, align 4
  %93 = sext i32 %92 to i64
  %94 = getelementptr inbounds [500 x i8], [500 x i8]* %91, i64 0, i64 %93
  %95 = load i8, i8* %94, align 1
  %96 = sext i8 %95 to i32
  %97 = icmp ne i32 %96, 71
  br i1 %97, label %98, label %100

98:                                               ; preds = %90, %58
  %99 = call i32 (i8*, ...) @printf(i8* getelementptr inbounds ([6 x i8], [6 x i8]* @.str.2, i64 0, i64 0))
  store i32 1, i32* %3, align 4
  br label %124

100:                                              ; preds = %90, %82, %74, %66
  %101 = getelementptr inbounds [2 x [500 x i8]], [2 x [500 x i8]]* %4, i64 0, i64 0
  %102 = load i32, i32* %7, align 4
  %103 = sext i32 %102 to i64
  %104 = getelementptr inbounds [500 x i8], [500 x i8]* %101, i64 0, i64 %103
  %105 = load i8, i8* %104, align 1
  %106 = sext i8 %105 to i32
  %107 = getelementptr inbounds [2 x [500 x i8]], [2 x [500 x i8]]* %4, i64 0, i64 1
  %108 = load i32, i32* %7, align 4
  %109 = sext i32 %108 to i64
  %110 = getelementptr inbounds [500 x i8], [500 x i8]* %107, i64 0, i64 %109
  %111 = load i8, i8* %110, align 1
  %112 = sext i8 %111 to i32
  %113 = icmp eq i32 %106, %112
  br i1 %113, label %114, label %119

114:                                              ; preds = %100
  %115 = load float, float* %5, align 4
  %116 = fpext float %115 to double
  %117 = fadd double %116, 1.000000e+00
  %118 = fptrunc double %117 to float
  store float %118, float* %5, align 4
  br label %119

119:                                              ; preds = %114, %100
  br label %120

120:                                              ; preds = %119
  br label %121

121:                                              ; preds = %120
  %122 = load i32, i32* %7, align 4
  %123 = add nsw i32 %122, 1
  store i32 %123, i32* %7, align 4
  br label %29

124:                                              ; preds = %98, %29
  %125 = load float, float* %5, align 4
  %126 = load float, float* %6, align 4
  %127 = fdiv float %125, %126
  %128 = load float, float* %2, align 4
  %129 = fcmp oge float %127, %128
  br i1 %129, label %130, label %135

130:                                              ; preds = %124
  %131 = load i32, i32* %3, align 4
  %132 = icmp eq i32 %131, 0
  br i1 %132, label %133, label %135

133:                                              ; preds = %130
  %134 = call i32 (i8*, ...) @printf(i8* getelementptr inbounds ([4 x i8], [4 x i8]* @.str.3, i64 0, i64 0))
  br label %135

135:                                              ; preds = %133, %130, %124
  %136 = load float, float* %5, align 4
  %137 = load float, float* %6, align 4
  %138 = fdiv float %136, %137
  %139 = load float, float* %2, align 4
  %140 = fcmp olt float %138, %139
  br i1 %140, label %141, label %146

141:                                              ; preds = %135
  %142 = load i32, i32* %3, align 4
  %143 = icmp eq i32 %142, 0
  br i1 %143, label %144, label %146

144:                                              ; preds = %141
  %145 = call i32 (i8*, ...) @printf(i8* getelementptr inbounds ([3 x i8], [3 x i8]* @.str.4, i64 0, i64 0))
  br label %146

146:                                              ; preds = %144, %141, %135
  br label %147

147:                                              ; preds = %146, %22
  ret i32 0
}

declare dso_local i32 @__isoc99_scanf(i8*, ...) #1

; Function Attrs: nounwind readonly
declare dso_local i64 @strlen(i8*) #2

declare dso_local i32 @printf(i8*, ...) #1


!llvm.module.flags = !{!0}
!llvm.ident = !{!1}

!0 = !{i32 1, !"wchar_size", i32 4}
!1 = !{!"clang version 10.0.0-4ubuntu1 "}
